; ModuleID = '39/746.c'
source_filename = "39/746.c"
target datalayout = "e-m:e-p270:32:32-p271:32:32-p272:64:64-i64:64-f80:128-n8:16:32:64-S128"
target triple = "x86_64-pc-linux-gnu"

%struct.student = type { [20 x i8], i32, i32, i8, i8, i32, i32 }

@.str = private unnamed_addr constant [3 x i8] c"%d\00", align 1
@.str.1 = private unnamed_addr constant [18 x i8] c"%s %d %d %c %c %d\00", align 1
@.str.2 = private unnamed_addr constant [10 x i8] c"%s\0A%d\0A%d\0A\00", align 1

; Function Attrs: noinline nounwind uwtable
define dso_local void @main() #0 {
  %1 = alloca [100 x %struct.student], align 16
  %2 = alloca %struct.student, align 4
  %3 = alloca %struct.student, align 4
  %4 = alloca i32, align 4
  %5 = alloca i32, align 4
  %6 = alloca i32, align 4
  %7 = call i32 (i8*, ...) @__isoc99_scanf(i8* getelementptr inbounds ([3 x i8], [3 x i8]* @.str, i64 0, i64 0), i32* %4)
  %8 = getelementptr inbounds %struct.student, %struct.student* %3, i32 0, i32 6
  store i32 0, i32* %8, align 4
  store i32 0, i32* %5, align 4
  br label %9

9:                                                ; preds = %152, %0
  %10 = load i32, i32* %5, align 4
  %11 = load i32, i32* %4, align 4
  %12 = icmp slt i32 %10, %11
  br i1 %12, label %13, label %155

13:                                               ; preds = %9
  %14 = load i32, i32* %5, align 4
  %15 = sext i32 %14 to i64
  %16 = getelementptr inbounds [100 x %struct.student], [100 x %struct.student]* %1, i64 0, i64 %15
  %17 = getelementptr inbounds %struct.student, %struct.student* %16, i32 0, i32 6
  store i32 0, i32* %17, align 4
  %18 = load i32, i32* %5, align 4
  %19 = sext i32 %18 to i64
  %20 = getelementptr inbounds [100 x %struct.student], [100 x %struct.student]* %1, i64 0, i64 %19
  %21 = getelementptr inbounds %struct.student, %struct.student* %20, i32 0, i32 0
  %22 = getelementptr inbounds [20 x i8], [20 x i8]* %21, i64 0, i64 0
  %23 = load i32, i32* %5, align 4
  %24 = sext i32 %23 to i64
  %25 = getelementptr inbounds [100 x %struct.student], [100 x %struct.student]* %1, i64 0, i64 %24
  %26 = getelementptr inbounds %struct.student, %struct.student* %25, i32 0, i32 1
  %27 = load i32, i32* %5, align 4
  %28 = sext i32 %27 to i64
  %29 = getelementptr inbounds [100 x %struct.student], [100 x %struct.student]* %1, i64 0, i64 %28
  %30 = getelementptr inbounds %struct.student, %struct.student* %29, i32 0, i32 2
  %31 = load i32, i32* %5, align 4
  %32 = sext i32 %31 to i64
  %33 = getelementptr inbounds [100 x %struct.student], [100 x %struct.student]* %1, i64 0, i64 %32
  %34 = getelementptr inbounds %struct.student, %struct.student* %33, i32 0, i32 3
  %35 = load i32, i32* %5, align 4
  %36 = sext i32 %35 to i64
  %37 = getelementptr inbounds [100 x %struct.student], [100 x %struct.student]* %1, i64 0, i64 %36
  %38 = getelementptr inbounds %struct.student, %struct.student* %37, i32 0, i32 4
  %39 = load i32, i32* %5, align 4
  %40 = sext i32 %39 to i64
  %41 = getelementptr inbounds [100 x %struct.student], [100 x %struct.student]* %1, i64 0, i64 %40
  %42 = getelementptr inbounds %struct.student, %struct.student* %41, i32 0, i32 5
  %43 = call i32 (i8*, ...) @__isoc99_scanf(i8* getelementptr inbounds ([18 x i8], [18 x i8]* @.str.1, i64 0, i64 0), i8* %22, i32* %26, i32* %30, i8* %34, i8* %38, i32* %42)
  %44 = load i32, i32* %5, align 4
  %45 = sext i32 %44 to i64
  %46 = getelementptr inbounds [100 x %struct.student], [100 x %struct.student]* %1, i64 0, i64 %45
  %47 = getelementptr inbounds %struct.student, %struct.student* %46, i32 0, i32 1
  %48 = load i32, i32* %47, align 4
  %49 = icmp sgt i32 %48, 80
  br i1 %49, label %50, label %64

50:                                               ; preds = %13
  %51 = load i32, i32* %5, align 4
  %52 = sext i32 %51 to i64
  %53 = getelementptr inbounds [100 x %struct.student], [100 x %struct.student]* %1, i64 0, i64 %52
  %54 = getelementptr inbounds %struct.student, %struct.student* %53, i32 0, i32 5
  %55 = load i32, i32* %54, align 8
  %56 = icmp sgt i32 %55, 0
  br i1 %56, label %57, label %64

57:                                               ; preds = %50
  %58 = load i32, i32* %5, align 4
  %59 = sext i32 %58 to i64
  %60 = getelementptr inbounds [100 x %struct.student], [100 x %struct.student]* %1, i64 0, i64 %59
  %61 = getelementptr inbounds %struct.student, %struct.student* %60, i32 0, i32 6
  %62 = load i32, i32* %61, align 4
  %63 = add nsw i32 %62, 8000
  store i32 %63, i32* %61, align 4
  br label %64

64:                                               ; preds = %57, %50, %13
  %65 = load i32, i32* %5, align 4
  %66 = sext i32 %65 to i64
  %67 = getelementptr inbounds [100 x %struct.student], [100 x %struct.student]* %1, i64 0, i64 %66
  %68 = getelementptr inbounds %struct.student, %struct.student* %67, i32 0, i32 1
  %69 = load i32, i32* %68, align 4
  %70 = icmp sgt i32 %69, 85
  br i1 %70, label %71, label %85

71:                                               ; preds = %64
  %72 = load i32, i32* %5, align 4
  %73 = sext i32 %72 to i64
  %74 = getelementptr inbounds [100 x %struct.student], [100 x %struct.student]* %1, i64 0, i64 %73
  %75 = getelementptr inbounds %struct.student, %struct.student* %74, i32 0, i32 2
  %76 = load i32, i32* %75, align 8
  %77 = icmp sgt i32 %76, 80
  br i1 %77, label %78, label %85

78:                                               ; preds = %71
  %79 = load i32, i32* %5, align 4
  %80 = sext i32 %79 to i64
  %81 = getelementptr inbounds [100 x %struct.student], [100 x %struct.student]* %1, i64 0, i64 %80
  %82 = getelementptr inbounds %struct.student, %struct.student* %81, i32 0, i32 6
  %83 = load i32, i32* %82, align 4
  %84 = add nsw i32 %83, 4000
  store i32 %84, i32* %82, align 4
  br label %85

85:                                               ; preds = %78, %71, %64
  %86 = load i32, i32* %5, align 4
  %87 = sext i32 %86 to i64
  %88 = getelementptr inbounds [100 x %struct.student], [100 x %struct.student]* %1, i64 0, i64 %87
  %89 = getelementptr inbounds %struct.student, %struct.student* %88, i32 0, i32 1
  %90 = load i32, i32* %89, align 4
  %91 = icmp sgt i32 %90, 90
  br i1 %91, label %92, label %99

92:                                               ; preds = %85
  %93 = load i32, i32* %5, align 4
  %94 = sext i32 %93 to i64
  %95 = getelementptr inbounds [100 x %struct.student], [100 x %struct.student]* %1, i64 0, i64 %94
  %96 = getelementptr inbounds %struct.student, %struct.student* %95, i32 0, i32 6
  %97 = load i32, i32* %96, align 4
  %98 = add nsw i32 %97, 2000
  store i32 %98, i32* %96, align 4
  br label %99

99:                                               ; preds = %92, %85
  %100 = load i32, i32* %5, align 4
  %101 = sext i32 %100 to i64
  %102 = getelementptr inbounds [100 x %struct.student], [100 x %struct.student]* %1, i64 0, i64 %101
  %103 = getelementptr inbounds %struct.student, %struct.student* %102, i32 0, i32 1
  %104 = load i32, i32* %103, align 4
  %105 = icmp sgt i32 %104, 85
  br i1 %105, label %106, label %121

106:                                              ; preds = %99
  %107 = load i32, i32* %5, align 4
  %108 = sext i32 %107 to i64
  %109 = getelementptr inbounds [100 x %struct.student], [100 x %struct.student]* %1, i64 0, i64 %108
  %110 = getelementptr inbounds %struct.student, %struct.student* %109, i32 0, i32 4
  %111 = load i8, i8* %110, align 1
  %112 = sext i8 %111 to i32
  %113 = icmp eq i32 %112, 89
  br i1 %113, label %114, label %121

114:                                              ; preds = %106
  %115 = load i32, i32* %5, align 4
  %116 = sext i32 %115 to i64
  %117 = getelementptr inbounds [100 x %struct.student], [100 x %struct.student]* %1, i64 0, i64 %116
  %118 = getelementptr inbounds %struct.student, %struct.student* %117, i32 0, i32 6
  %119 = load i32, i32* %118, align 4
  %120 = add nsw i32 %119, 1000
  store i32 %120, i32* %118, align 4
  br label %121

121:                                              ; preds = %114, %106, %99
  %122 = load i32, i32* %5, align 4
  %123 = sext i32 %122 to i64
  %124 = getelementptr inbounds [100 x %struct.student], [100 x %struct.student]* %1, i64 0, i64 %123
  %125 = getelementptr inbounds %struct.student, %struct.student* %124, i32 0, i32 2
  %126 = load i32, i32* %125, align 8
  %127 = icmp sgt i32 %126, 80
  br i1 %127, label %128, label %143

128:                                              ; preds = %121
  %129 = load i32, i32* %5, align 4
  %130 = sext i32 %129 to i64
  %131 = getelementptr inbounds [100 x %struct.student], [100 x %struct.student]* %1, i64 0, i64 %130
  %132 = getelementptr inbounds %struct.student, %struct.student* %131, i32 0, i32 3
  %133 = load i8, i8* %132, align 4
  %134 = sext i8 %133 to i32
  %135 = icmp eq i32 %134, 89
  br i1 %135, label %136, label %143

136:                                              ; preds = %128
  %137 = load i32, i32* %5, align 4
  %138 = sext i32 %137 to i64
  %139 = getelementptr inbounds [100 x %struct.student], [100 x %struct.student]* %1, i64 0, i64 %138
  %140 = getelementptr inbounds %struct.student, %struct.student* %139, i32 0, i32 6
  %141 = load i32, i32* %140, align 4
  %142 = add nsw i32 %141, 850
  store i32 %142, i32* %140, align 4
  br label %143

143:                                              ; preds = %136, %128, %121
  %144 = load i32, i32* %5, align 4
  %145 = sext i32 %144 to i64
  %146 = getelementptr inbounds [100 x %struct.student], [100 x %struct.student]* %1, i64 0, i64 %145
  %147 = getelementptr inbounds %struct.student, %struct.student* %146, i32 0, i32 6
  %148 = load i32, i32* %147, align 4
  %149 = getelementptr inbounds %struct.student, %struct.student* %3, i32 0, i32 6
  %150 = load i32, i32* %149, align 4
  %151 = add nsw i32 %150, %148
  store i32 %151, i32* %149, align 4
  br label %152

152:                                              ; preds = %143
  %153 = load i32, i32* %5, align 4
  %154 = add nsw i32 %153, 1
  store i32 %154, i32* %5, align 4
  br label %9

155:                                              ; preds = %9
  store i32 0, i32* %6, align 4
  br label %156

156:                                              ; preds = %208, %155
  %157 = load i32, i32* %6, align 4
  %158 = load i32, i32* %4, align 4
  %159 = sub nsw i32 %158, 1
  %160 = icmp slt i32 %157, %159
  br i1 %160, label %161, label %211

161:                                              ; preds = %156
  store i32 0, i32* %5, align 4
  br label %162

162:                                              ; preds = %204, %161
  %163 = load i32, i32* %5, align 4
  %164 = load i32, i32* %4, align 4
  %165 = sub nsw i32 %164, 1
  %166 = load i32, i32* %6, align 4
  %167 = sub nsw i32 %165, %166
  %168 = icmp slt i32 %163, %167
  br i1 %168, label %169, label %207

169:                                              ; preds = %162
  %170 = load i32, i32* %5, align 4
  %171 = sext i32 %170 to i64
  %172 = getelementptr inbounds [100 x %struct.student], [100 x %struct.student]* %1, i64 0, i64 %171
  %173 = getelementptr inbounds %struct.student, %struct.student* %172, i32 0, i32 6
  %174 = load i32, i32* %173, align 4
  %175 = load i32, i32* %5, align 4
  %176 = add nsw i32 %175, 1
  %177 = sext i32 %176 to i64
  %178 = getelementptr inbounds [100 x %struct.student], [100 x %struct.student]* %1, i64 0, i64 %177
  %179 = getelementptr inbounds %struct.student, %struct.student* %178, i32 0, i32 6
  %180 = load i32, i32* %179, align 4
  %181 = icmp sge i32 %174, %180
  br i1 %181, label %182, label %203

182:                                              ; preds = %169
  %183 = load i32, i32* %5, align 4
  %184 = sext i32 %183 to i64
  %185 = getelementptr inbounds [100 x %struct.student], [100 x %struct.student]* %1, i64 0, i64 %184
  %186 = bitcast %struct.student* %2 to i8*
  %187 = bitcast %struct.student* %185 to i8*
  call void @llvm.memcpy.p0i8.p0i8.i64(i8* align 4 %186, i8* align 8 %187, i64 40, i1 false)
  %188 = load i32, i32* %5, align 4
  %189 = sext i32 %188 to i64
  %190 = getelementptr inbounds [100 x %struct.student], [100 x %struct.student]* %1, i64 0, i64 %189
  %191 = load i32, i32* %5, align 4
  %192 = add nsw i32 %191, 1
  %193 = sext i32 %192 to i64
  %194 = getelementptr inbounds [100 x %struct.student], [100 x %struct.student]* %1, i64 0, i64 %193
  %195 = bitcast %struct.student* %190 to i8*
  %196 = bitcast %struct.student* %194 to i8*
  call void @llvm.memcpy.p0i8.p0i8.i64(i8* align 8 %195, i8* align 8 %196, i64 40, i1 false)
  %197 = load i32, i32* %5, align 4
  %198 = add nsw i32 %197, 1
  %199 = sext i32 %198 to i64
  %200 = getelementptr inbounds [100 x %struct.student], [100 x %struct.student]* %1, i64 0, i64 %199
  %201 = bitcast %struct.student* %200 to i8*
  %202 = bitcast %struct.student* %2 to i8*
  call void @llvm.memcpy.p0i8.p0i8.i64(i8* align 8 %201, i8* align 4 %202, i64 40, i1 false)
  br label %203

203:                                              ; preds = %182, %169
  br label %204

204:                                              ; preds = %203
  %205 = load i32, i32* %5, align 4
  %206 = add nsw i32 %205, 1
  store i32 %206, i32* %5, align 4
  br label %162

207:                                              ; preds = %162
  br label %208

208:                                              ; preds = %207
  %209 = load i32, i32* %6, align 4
  %210 = add nsw i32 %209, 1
  store i32 %210, i32* %6, align 4
  br label %156

211:                                              ; preds = %156
  %212 = load i32, i32* %4, align 4
  %213 = sub nsw i32 %212, 1
  %214 = sext i32 %213 to i64
  %215 = getelementptr inbounds [100 x %struct.student], [100 x %struct.student]* %1, i64 0, i64 %214
  %216 = getelementptr inbounds %struct.student, %struct.student* %215, i32 0, i32 0
  %217 = getelementptr inbounds [20 x i8], [20 x i8]* %216, i64 0, i64 0
  %218 = load i32, i32* %4, align 4
  %219 = sub nsw i32 %218, 1
  %220 = sext i32 %219 to i64
  %221 = getelementptr inbounds [100 x %struct.student], [100 x %struct.student]* %1, i64 0, i64 %220
  %222 = getelementptr inbounds %struct.student, %struct.student* %221, i32 0, i32 6
  %223 = load i32, i32* %222, align 4
  %224 = getelementptr inbounds %struct.student, %struct.student* %3, i32 0, i32 6
  %225 = load i32, i32* %224, align 4
  %226 = call i32 (i8*, ...) @printf(i8* getelementptr inbounds ([10 x i8], [10 x i8]* @.str.2, i64 0, i64 0), i8* %217, i32 %223, i32 %225)
  ret void
}

declare dso_local i32 @__isoc99_scanf(i8*, ...) #1

; Function Attrs: argmemonly nounwind willreturn
declare void @llvm.memcpy.p0i8.p0i8.i64(i8* noalias nocapture writeonly, i8* noalias nocapture readonly, i64, i1 immarg) #2

declare dso_local i32 @printf(i8*, ...) #1


!llvm.module.flags = !{!0}
!llvm.ident = !{!1}

!0 = !{i32 1, !"wchar_size", i32 4}
!1 = !{!"clang version 10.0.0-4ubuntu1 "}
